
Schedular.elf:     file format elf32-avr

Sections:
Idx Name          Size      VMA       LMA       File off  Algn
  0 .text         0000082c  00000000  00000000  00000074  2**1
                  CONTENTS, ALLOC, LOAD, READONLY, CODE
  1 .data         00000000  00800060  00800060  000008a0  2**0
                  CONTENTS, ALLOC, LOAD, DATA
  2 .bss          00000020  00800060  00800060  000008a0  2**0
                  ALLOC
  3 .comment      00000030  00000000  00000000  000008a0  2**0
                  CONTENTS, READONLY
  4 .note.gnu.avr.deviceinfo 0000003c  00000000  00000000  000008d0  2**2
                  CONTENTS, READONLY
  5 .debug_aranges 00000100  00000000  00000000  0000090c  2**0
                  CONTENTS, READONLY, DEBUGGING
  6 .debug_info   00000a20  00000000  00000000  00000a0c  2**0
                  CONTENTS, READONLY, DEBUGGING
  7 .debug_abbrev 000007a7  00000000  00000000  0000142c  2**0
                  CONTENTS, READONLY, DEBUGGING
  8 .debug_line   00000834  00000000  00000000  00001bd3  2**0
                  CONTENTS, READONLY, DEBUGGING
  9 .debug_frame  000002c8  00000000  00000000  00002408  2**2
                  CONTENTS, READONLY, DEBUGGING
 10 .debug_str    0000046c  00000000  00000000  000026d0  2**0
                  CONTENTS, READONLY, DEBUGGING
 11 .debug_loc    000004fc  00000000  00000000  00002b3c  2**0
                  CONTENTS, READONLY, DEBUGGING
 12 .debug_ranges 000000b0  00000000  00000000  00003038  2**0
                  CONTENTS, READONLY, DEBUGGING

Disassembly of section .text:

00000000 <__vectors>:
   0:	0c 94 2a 00 	jmp	0x54	; 0x54 <__ctors_end>
   4:	0c 94 3c 00 	jmp	0x78	; 0x78 <__bad_interrupt>
   8:	0c 94 3c 00 	jmp	0x78	; 0x78 <__bad_interrupt>
   c:	0c 94 3c 00 	jmp	0x78	; 0x78 <__bad_interrupt>
  10:	0c 94 3c 00 	jmp	0x78	; 0x78 <__bad_interrupt>
  14:	0c 94 3c 00 	jmp	0x78	; 0x78 <__bad_interrupt>
  18:	0c 94 3c 00 	jmp	0x78	; 0x78 <__bad_interrupt>
  1c:	0c 94 3c 00 	jmp	0x78	; 0x78 <__bad_interrupt>
  20:	0c 94 3c 00 	jmp	0x78	; 0x78 <__bad_interrupt>
  24:	0c 94 3c 00 	jmp	0x78	; 0x78 <__bad_interrupt>
  28:	0c 94 d7 03 	jmp	0x7ae	; 0x7ae <__vector_10>
  2c:	0c 94 3c 00 	jmp	0x78	; 0x78 <__bad_interrupt>
  30:	0c 94 3c 00 	jmp	0x78	; 0x78 <__bad_interrupt>
  34:	0c 94 3c 00 	jmp	0x78	; 0x78 <__bad_interrupt>
  38:	0c 94 3c 00 	jmp	0x78	; 0x78 <__bad_interrupt>
  3c:	0c 94 3c 00 	jmp	0x78	; 0x78 <__bad_interrupt>
  40:	0c 94 3c 00 	jmp	0x78	; 0x78 <__bad_interrupt>
  44:	0c 94 3c 00 	jmp	0x78	; 0x78 <__bad_interrupt>
  48:	0c 94 3c 00 	jmp	0x78	; 0x78 <__bad_interrupt>
  4c:	0c 94 3c 00 	jmp	0x78	; 0x78 <__bad_interrupt>
  50:	0c 94 3c 00 	jmp	0x78	; 0x78 <__bad_interrupt>

00000054 <__ctors_end>:
  54:	11 24       	eor	r1, r1
  56:	1f be       	out	0x3f, r1	; 63
  58:	cf e5       	ldi	r28, 0x5F	; 95
  5a:	d8 e0       	ldi	r29, 0x08	; 8
  5c:	de bf       	out	0x3e, r29	; 62
  5e:	cd bf       	out	0x3d, r28	; 61

00000060 <__do_clear_bss>:
  60:	20 e0       	ldi	r18, 0x00	; 0
  62:	a0 e6       	ldi	r26, 0x60	; 96
  64:	b0 e0       	ldi	r27, 0x00	; 0
  66:	01 c0       	rjmp	.+2      	; 0x6a <.do_clear_bss_start>

00000068 <.do_clear_bss_loop>:
  68:	1d 92       	st	X+, r1

0000006a <.do_clear_bss_start>:
  6a:	a0 38       	cpi	r26, 0x80	; 128
  6c:	b2 07       	cpc	r27, r18
  6e:	e1 f7       	brne	.-8      	; 0x68 <.do_clear_bss_loop>
  70:	0e 94 1e 02 	call	0x43c	; 0x43c <main>
  74:	0c 94 14 04 	jmp	0x828	; 0x828 <_exit>

00000078 <__bad_interrupt>:
  78:	0c 94 00 00 	jmp	0	; 0x0 <__vectors>

0000007c <DIO_WritePin>:
#include "DIO.h"
#include "DIO_Definitions.h"
#include "BitwiseOperation.h"

void DIO_WritePin(uint8 PinNum,uint8 PinValue)
{
  7c:	cf 93       	push	r28
  7e:	df 93       	push	r29
  80:	00 d0       	rcall	.+0      	; 0x82 <DIO_WritePin+0x6>
  82:	cd b7       	in	r28, 0x3d	; 61
  84:	de b7       	in	r29, 0x3e	; 62
  86:	89 83       	std	Y+1, r24	; 0x01
  88:	6a 83       	std	Y+2, r22	; 0x02
	if(PinNum >= 0 && PinNum < 8 )
  8a:	89 81       	ldd	r24, Y+1	; 0x01
  8c:	88 30       	cpi	r24, 0x08	; 8
  8e:	78 f5       	brcc	.+94     	; 0xee <DIO_WritePin+0x72>
	{
			if(PinValue == 1)
  90:	8a 81       	ldd	r24, Y+2	; 0x02
  92:	81 30       	cpi	r24, 0x01	; 1
  94:	a1 f4       	brne	.+40     	; 0xbe <DIO_WritePin+0x42>
			{
				Set_Bit( PORTA , PinNum);
  96:	8b e3       	ldi	r24, 0x3B	; 59
  98:	90 e0       	ldi	r25, 0x00	; 0
  9a:	2b e3       	ldi	r18, 0x3B	; 59
  9c:	30 e0       	ldi	r19, 0x00	; 0
  9e:	f9 01       	movw	r30, r18
  a0:	20 81       	ld	r18, Z
  a2:	62 2f       	mov	r22, r18
  a4:	29 81       	ldd	r18, Y+1	; 0x01
  a6:	42 2f       	mov	r20, r18
  a8:	50 e0       	ldi	r21, 0x00	; 0
  aa:	21 e0       	ldi	r18, 0x01	; 1
  ac:	30 e0       	ldi	r19, 0x00	; 0
  ae:	02 c0       	rjmp	.+4      	; 0xb4 <DIO_WritePin+0x38>
  b0:	22 0f       	add	r18, r18
  b2:	33 1f       	adc	r19, r19
  b4:	4a 95       	dec	r20
  b6:	e2 f7       	brpl	.-8      	; 0xb0 <DIO_WritePin+0x34>
  b8:	26 2b       	or	r18, r22
  ba:	fc 01       	movw	r30, r24
  bc:	20 83       	st	Z, r18
			}
			if(PinValue == 0)
  be:	8a 81       	ldd	r24, Y+2	; 0x02
  c0:	88 23       	and	r24, r24
  c2:	a9 f4       	brne	.+42     	; 0xee <DIO_WritePin+0x72>
			{
				Clear_Bit( PORTA , PinNum);
  c4:	8b e3       	ldi	r24, 0x3B	; 59
  c6:	90 e0       	ldi	r25, 0x00	; 0
  c8:	2b e3       	ldi	r18, 0x3B	; 59
  ca:	30 e0       	ldi	r19, 0x00	; 0
  cc:	f9 01       	movw	r30, r18
  ce:	20 81       	ld	r18, Z
  d0:	62 2f       	mov	r22, r18
  d2:	29 81       	ldd	r18, Y+1	; 0x01
  d4:	42 2f       	mov	r20, r18
  d6:	50 e0       	ldi	r21, 0x00	; 0
  d8:	21 e0       	ldi	r18, 0x01	; 1
  da:	30 e0       	ldi	r19, 0x00	; 0
  dc:	02 c0       	rjmp	.+4      	; 0xe2 <DIO_WritePin+0x66>
  de:	22 0f       	add	r18, r18
  e0:	33 1f       	adc	r19, r19
  e2:	4a 95       	dec	r20
  e4:	e2 f7       	brpl	.-8      	; 0xde <DIO_WritePin+0x62>
  e6:	20 95       	com	r18
  e8:	26 23       	and	r18, r22
  ea:	fc 01       	movw	r30, r24
  ec:	20 83       	st	Z, r18
			}
	}
	if(PinNum > 7 && PinNum < 16)
  ee:	89 81       	ldd	r24, Y+1	; 0x01
  f0:	88 30       	cpi	r24, 0x08	; 8
  f2:	c0 f1       	brcs	.+112    	; 0x164 <DIO_WritePin+0xe8>
  f4:	89 81       	ldd	r24, Y+1	; 0x01
  f6:	80 31       	cpi	r24, 0x10	; 16
  f8:	a8 f5       	brcc	.+106    	; 0x164 <DIO_WritePin+0xe8>
	{
		if(PinValue == 1)
  fa:	8a 81       	ldd	r24, Y+2	; 0x02
  fc:	81 30       	cpi	r24, 0x01	; 1
  fe:	b9 f4       	brne	.+46     	; 0x12e <DIO_WritePin+0xb2>
		{
			Set_Bit( PORTB , (PinNum-8));
 100:	88 e3       	ldi	r24, 0x38	; 56
 102:	90 e0       	ldi	r25, 0x00	; 0
 104:	28 e3       	ldi	r18, 0x38	; 56
 106:	30 e0       	ldi	r19, 0x00	; 0
 108:	f9 01       	movw	r30, r18
 10a:	20 81       	ld	r18, Z
 10c:	62 2f       	mov	r22, r18
 10e:	29 81       	ldd	r18, Y+1	; 0x01
 110:	22 2f       	mov	r18, r18
 112:	30 e0       	ldi	r19, 0x00	; 0
 114:	a9 01       	movw	r20, r18
 116:	48 50       	subi	r20, 0x08	; 8
 118:	51 09       	sbc	r21, r1
 11a:	21 e0       	ldi	r18, 0x01	; 1
 11c:	30 e0       	ldi	r19, 0x00	; 0
 11e:	02 c0       	rjmp	.+4      	; 0x124 <DIO_WritePin+0xa8>
 120:	22 0f       	add	r18, r18
 122:	33 1f       	adc	r19, r19
 124:	4a 95       	dec	r20
 126:	e2 f7       	brpl	.-8      	; 0x120 <DIO_WritePin+0xa4>
 128:	26 2b       	or	r18, r22
 12a:	fc 01       	movw	r30, r24
 12c:	20 83       	st	Z, r18
		}
		if(PinValue == 0)
 12e:	8a 81       	ldd	r24, Y+2	; 0x02
 130:	88 23       	and	r24, r24
 132:	c1 f4       	brne	.+48     	; 0x164 <DIO_WritePin+0xe8>
		{
			Clear_Bit( PORTB , (PinNum-8));
 134:	88 e3       	ldi	r24, 0x38	; 56
 136:	90 e0       	ldi	r25, 0x00	; 0
 138:	28 e3       	ldi	r18, 0x38	; 56
 13a:	30 e0       	ldi	r19, 0x00	; 0
 13c:	f9 01       	movw	r30, r18
 13e:	20 81       	ld	r18, Z
 140:	62 2f       	mov	r22, r18
 142:	29 81       	ldd	r18, Y+1	; 0x01
 144:	22 2f       	mov	r18, r18
 146:	30 e0       	ldi	r19, 0x00	; 0
 148:	a9 01       	movw	r20, r18
 14a:	48 50       	subi	r20, 0x08	; 8
 14c:	51 09       	sbc	r21, r1
 14e:	21 e0       	ldi	r18, 0x01	; 1
 150:	30 e0       	ldi	r19, 0x00	; 0
 152:	02 c0       	rjmp	.+4      	; 0x158 <DIO_WritePin+0xdc>
 154:	22 0f       	add	r18, r18
 156:	33 1f       	adc	r19, r19
 158:	4a 95       	dec	r20
 15a:	e2 f7       	brpl	.-8      	; 0x154 <DIO_WritePin+0xd8>
 15c:	20 95       	com	r18
 15e:	26 23       	and	r18, r22
 160:	fc 01       	movw	r30, r24
 162:	20 83       	st	Z, r18
		}
	}
	if(PinNum > 15 && PinNum < 24)
 164:	89 81       	ldd	r24, Y+1	; 0x01
 166:	80 31       	cpi	r24, 0x10	; 16
 168:	c0 f1       	brcs	.+112    	; 0x1da <DIO_WritePin+0x15e>
 16a:	89 81       	ldd	r24, Y+1	; 0x01
 16c:	88 31       	cpi	r24, 0x18	; 24
 16e:	a8 f5       	brcc	.+106    	; 0x1da <DIO_WritePin+0x15e>
	{
		if(PinValue == 1)
 170:	8a 81       	ldd	r24, Y+2	; 0x02
 172:	81 30       	cpi	r24, 0x01	; 1
 174:	b9 f4       	brne	.+46     	; 0x1a4 <DIO_WritePin+0x128>
		{
			Set_Bit( PORTC , (PinNum-16));
 176:	85 e3       	ldi	r24, 0x35	; 53
 178:	90 e0       	ldi	r25, 0x00	; 0
 17a:	25 e3       	ldi	r18, 0x35	; 53
 17c:	30 e0       	ldi	r19, 0x00	; 0
 17e:	f9 01       	movw	r30, r18
 180:	20 81       	ld	r18, Z
 182:	62 2f       	mov	r22, r18
 184:	29 81       	ldd	r18, Y+1	; 0x01
 186:	22 2f       	mov	r18, r18
 188:	30 e0       	ldi	r19, 0x00	; 0
 18a:	a9 01       	movw	r20, r18
 18c:	40 51       	subi	r20, 0x10	; 16
 18e:	51 09       	sbc	r21, r1
 190:	21 e0       	ldi	r18, 0x01	; 1
 192:	30 e0       	ldi	r19, 0x00	; 0
 194:	02 c0       	rjmp	.+4      	; 0x19a <DIO_WritePin+0x11e>
 196:	22 0f       	add	r18, r18
 198:	33 1f       	adc	r19, r19
 19a:	4a 95       	dec	r20
 19c:	e2 f7       	brpl	.-8      	; 0x196 <DIO_WritePin+0x11a>
 19e:	26 2b       	or	r18, r22
 1a0:	fc 01       	movw	r30, r24
 1a2:	20 83       	st	Z, r18
		}
		if(PinValue == 0)
 1a4:	8a 81       	ldd	r24, Y+2	; 0x02
 1a6:	88 23       	and	r24, r24
 1a8:	c1 f4       	brne	.+48     	; 0x1da <DIO_WritePin+0x15e>
		{
			Clear_Bit( PORTC , (PinNum-16));
 1aa:	85 e3       	ldi	r24, 0x35	; 53
 1ac:	90 e0       	ldi	r25, 0x00	; 0
 1ae:	25 e3       	ldi	r18, 0x35	; 53
 1b0:	30 e0       	ldi	r19, 0x00	; 0
 1b2:	f9 01       	movw	r30, r18
 1b4:	20 81       	ld	r18, Z
 1b6:	62 2f       	mov	r22, r18
 1b8:	29 81       	ldd	r18, Y+1	; 0x01
 1ba:	22 2f       	mov	r18, r18
 1bc:	30 e0       	ldi	r19, 0x00	; 0
 1be:	a9 01       	movw	r20, r18
 1c0:	40 51       	subi	r20, 0x10	; 16
 1c2:	51 09       	sbc	r21, r1
 1c4:	21 e0       	ldi	r18, 0x01	; 1
 1c6:	30 e0       	ldi	r19, 0x00	; 0
 1c8:	02 c0       	rjmp	.+4      	; 0x1ce <DIO_WritePin+0x152>
 1ca:	22 0f       	add	r18, r18
 1cc:	33 1f       	adc	r19, r19
 1ce:	4a 95       	dec	r20
 1d0:	e2 f7       	brpl	.-8      	; 0x1ca <DIO_WritePin+0x14e>
 1d2:	20 95       	com	r18
 1d4:	26 23       	and	r18, r22
 1d6:	fc 01       	movw	r30, r24
 1d8:	20 83       	st	Z, r18
		}
	}
	
	if(PinNum > 24 && PinNum < 32)
 1da:	89 81       	ldd	r24, Y+1	; 0x01
 1dc:	89 31       	cpi	r24, 0x19	; 25
 1de:	c0 f1       	brcs	.+112    	; 0x250 <DIO_WritePin+0x1d4>
 1e0:	89 81       	ldd	r24, Y+1	; 0x01
 1e2:	80 32       	cpi	r24, 0x20	; 32
 1e4:	a8 f5       	brcc	.+106    	; 0x250 <DIO_WritePin+0x1d4>
	{
			if(PinValue == 1)
 1e6:	8a 81       	ldd	r24, Y+2	; 0x02
 1e8:	81 30       	cpi	r24, 0x01	; 1
 1ea:	b9 f4       	brne	.+46     	; 0x21a <DIO_WritePin+0x19e>
			{
				Set_Bit( PORTD , (PinNum-24));
 1ec:	82 e3       	ldi	r24, 0x32	; 50
 1ee:	90 e0       	ldi	r25, 0x00	; 0
 1f0:	22 e3       	ldi	r18, 0x32	; 50
 1f2:	30 e0       	ldi	r19, 0x00	; 0
 1f4:	f9 01       	movw	r30, r18
 1f6:	20 81       	ld	r18, Z
 1f8:	62 2f       	mov	r22, r18
 1fa:	29 81       	ldd	r18, Y+1	; 0x01
 1fc:	22 2f       	mov	r18, r18
 1fe:	30 e0       	ldi	r19, 0x00	; 0
 200:	a9 01       	movw	r20, r18
 202:	48 51       	subi	r20, 0x18	; 24
 204:	51 09       	sbc	r21, r1
 206:	21 e0       	ldi	r18, 0x01	; 1
 208:	30 e0       	ldi	r19, 0x00	; 0
 20a:	02 c0       	rjmp	.+4      	; 0x210 <DIO_WritePin+0x194>
 20c:	22 0f       	add	r18, r18
 20e:	33 1f       	adc	r19, r19
 210:	4a 95       	dec	r20
 212:	e2 f7       	brpl	.-8      	; 0x20c <DIO_WritePin+0x190>
 214:	26 2b       	or	r18, r22
 216:	fc 01       	movw	r30, r24
 218:	20 83       	st	Z, r18
			}
			if(PinValue == 0)
 21a:	8a 81       	ldd	r24, Y+2	; 0x02
 21c:	88 23       	and	r24, r24
 21e:	c1 f4       	brne	.+48     	; 0x250 <DIO_WritePin+0x1d4>
			{
				Clear_Bit( PORTD , (PinNum-24));
 220:	82 e3       	ldi	r24, 0x32	; 50
 222:	90 e0       	ldi	r25, 0x00	; 0
 224:	22 e3       	ldi	r18, 0x32	; 50
 226:	30 e0       	ldi	r19, 0x00	; 0
 228:	f9 01       	movw	r30, r18
 22a:	20 81       	ld	r18, Z
 22c:	62 2f       	mov	r22, r18
 22e:	29 81       	ldd	r18, Y+1	; 0x01
 230:	22 2f       	mov	r18, r18
 232:	30 e0       	ldi	r19, 0x00	; 0
 234:	a9 01       	movw	r20, r18
 236:	48 51       	subi	r20, 0x18	; 24
 238:	51 09       	sbc	r21, r1
 23a:	21 e0       	ldi	r18, 0x01	; 1
 23c:	30 e0       	ldi	r19, 0x00	; 0
 23e:	02 c0       	rjmp	.+4      	; 0x244 <DIO_WritePin+0x1c8>
 240:	22 0f       	add	r18, r18
 242:	33 1f       	adc	r19, r19
 244:	4a 95       	dec	r20
 246:	e2 f7       	brpl	.-8      	; 0x240 <DIO_WritePin+0x1c4>
 248:	20 95       	com	r18
 24a:	26 23       	and	r18, r22
 24c:	fc 01       	movw	r30, r24
 24e:	20 83       	st	Z, r18
			}
	}
}
 250:	00 00       	nop
 252:	0f 90       	pop	r0
 254:	0f 90       	pop	r0
 256:	df 91       	pop	r29
 258:	cf 91       	pop	r28
 25a:	08 95       	ret

0000025c <DIO_SetPinDirection>:
/*
pindirection = 1 output
pindirection = 0 input
*/
void DIO_SetPinDirection(uint8 PinNum,uint8 PinDirection)
{
 25c:	cf 93       	push	r28
 25e:	df 93       	push	r29
 260:	00 d0       	rcall	.+0      	; 0x262 <DIO_SetPinDirection+0x6>
 262:	cd b7       	in	r28, 0x3d	; 61
 264:	de b7       	in	r29, 0x3e	; 62
 266:	89 83       	std	Y+1, r24	; 0x01
 268:	6a 83       	std	Y+2, r22	; 0x02
		if(PinNum >= 0 && PinNum < 8 )
 26a:	89 81       	ldd	r24, Y+1	; 0x01
 26c:	88 30       	cpi	r24, 0x08	; 8
 26e:	78 f5       	brcc	.+94     	; 0x2ce <DIO_SetPinDirection+0x72>
		{
			if(PinDirection== 1)
 270:	8a 81       	ldd	r24, Y+2	; 0x02
 272:	81 30       	cpi	r24, 0x01	; 1
 274:	a1 f4       	brne	.+40     	; 0x29e <DIO_SetPinDirection+0x42>
			{
				Set_Bit( DDRA , PinNum);
 276:	8a e3       	ldi	r24, 0x3A	; 58
 278:	90 e0       	ldi	r25, 0x00	; 0
 27a:	2a e3       	ldi	r18, 0x3A	; 58
 27c:	30 e0       	ldi	r19, 0x00	; 0
 27e:	f9 01       	movw	r30, r18
 280:	20 81       	ld	r18, Z
 282:	62 2f       	mov	r22, r18
 284:	29 81       	ldd	r18, Y+1	; 0x01
 286:	42 2f       	mov	r20, r18
 288:	50 e0       	ldi	r21, 0x00	; 0
 28a:	21 e0       	ldi	r18, 0x01	; 1
 28c:	30 e0       	ldi	r19, 0x00	; 0
 28e:	02 c0       	rjmp	.+4      	; 0x294 <DIO_SetPinDirection+0x38>
 290:	22 0f       	add	r18, r18
 292:	33 1f       	adc	r19, r19
 294:	4a 95       	dec	r20
 296:	e2 f7       	brpl	.-8      	; 0x290 <DIO_SetPinDirection+0x34>
 298:	26 2b       	or	r18, r22
 29a:	fc 01       	movw	r30, r24
 29c:	20 83       	st	Z, r18
			}
			if(PinDirection== 0)
 29e:	8a 81       	ldd	r24, Y+2	; 0x02
 2a0:	88 23       	and	r24, r24
 2a2:	a9 f4       	brne	.+42     	; 0x2ce <DIO_SetPinDirection+0x72>
			{
				Clear_Bit( DDRA , PinNum);
 2a4:	8a e3       	ldi	r24, 0x3A	; 58
 2a6:	90 e0       	ldi	r25, 0x00	; 0
 2a8:	2a e3       	ldi	r18, 0x3A	; 58
 2aa:	30 e0       	ldi	r19, 0x00	; 0
 2ac:	f9 01       	movw	r30, r18
 2ae:	20 81       	ld	r18, Z
 2b0:	62 2f       	mov	r22, r18
 2b2:	29 81       	ldd	r18, Y+1	; 0x01
 2b4:	42 2f       	mov	r20, r18
 2b6:	50 e0       	ldi	r21, 0x00	; 0
 2b8:	21 e0       	ldi	r18, 0x01	; 1
 2ba:	30 e0       	ldi	r19, 0x00	; 0
 2bc:	02 c0       	rjmp	.+4      	; 0x2c2 <DIO_SetPinDirection+0x66>
 2be:	22 0f       	add	r18, r18
 2c0:	33 1f       	adc	r19, r19
 2c2:	4a 95       	dec	r20
 2c4:	e2 f7       	brpl	.-8      	; 0x2be <DIO_SetPinDirection+0x62>
 2c6:	20 95       	com	r18
 2c8:	26 23       	and	r18, r22
 2ca:	fc 01       	movw	r30, r24
 2cc:	20 83       	st	Z, r18
			}
		}
		if(PinNum > 7 && PinNum < 16)
 2ce:	89 81       	ldd	r24, Y+1	; 0x01
 2d0:	88 30       	cpi	r24, 0x08	; 8
 2d2:	c0 f1       	brcs	.+112    	; 0x344 <DIO_SetPinDirection+0xe8>
 2d4:	89 81       	ldd	r24, Y+1	; 0x01
 2d6:	80 31       	cpi	r24, 0x10	; 16
 2d8:	a8 f5       	brcc	.+106    	; 0x344 <DIO_SetPinDirection+0xe8>
		{
			if(PinDirection== 1)
 2da:	8a 81       	ldd	r24, Y+2	; 0x02
 2dc:	81 30       	cpi	r24, 0x01	; 1
 2de:	b9 f4       	brne	.+46     	; 0x30e <DIO_SetPinDirection+0xb2>
			{
				Set_Bit( DDRB , (PinNum-8));
 2e0:	87 e3       	ldi	r24, 0x37	; 55
 2e2:	90 e0       	ldi	r25, 0x00	; 0
 2e4:	27 e3       	ldi	r18, 0x37	; 55
 2e6:	30 e0       	ldi	r19, 0x00	; 0
 2e8:	f9 01       	movw	r30, r18
 2ea:	20 81       	ld	r18, Z
 2ec:	62 2f       	mov	r22, r18
 2ee:	29 81       	ldd	r18, Y+1	; 0x01
 2f0:	22 2f       	mov	r18, r18
 2f2:	30 e0       	ldi	r19, 0x00	; 0
 2f4:	a9 01       	movw	r20, r18
 2f6:	48 50       	subi	r20, 0x08	; 8
 2f8:	51 09       	sbc	r21, r1
 2fa:	21 e0       	ldi	r18, 0x01	; 1
 2fc:	30 e0       	ldi	r19, 0x00	; 0
 2fe:	02 c0       	rjmp	.+4      	; 0x304 <DIO_SetPinDirection+0xa8>
 300:	22 0f       	add	r18, r18
 302:	33 1f       	adc	r19, r19
 304:	4a 95       	dec	r20
 306:	e2 f7       	brpl	.-8      	; 0x300 <DIO_SetPinDirection+0xa4>
 308:	26 2b       	or	r18, r22
 30a:	fc 01       	movw	r30, r24
 30c:	20 83       	st	Z, r18
			}
			if(PinDirection== 0)
 30e:	8a 81       	ldd	r24, Y+2	; 0x02
 310:	88 23       	and	r24, r24
 312:	c1 f4       	brne	.+48     	; 0x344 <DIO_SetPinDirection+0xe8>
			{
				Clear_Bit( DDRB , (PinNum-8));
 314:	87 e3       	ldi	r24, 0x37	; 55
 316:	90 e0       	ldi	r25, 0x00	; 0
 318:	27 e3       	ldi	r18, 0x37	; 55
 31a:	30 e0       	ldi	r19, 0x00	; 0
 31c:	f9 01       	movw	r30, r18
 31e:	20 81       	ld	r18, Z
 320:	62 2f       	mov	r22, r18
 322:	29 81       	ldd	r18, Y+1	; 0x01
 324:	22 2f       	mov	r18, r18
 326:	30 e0       	ldi	r19, 0x00	; 0
 328:	a9 01       	movw	r20, r18
 32a:	48 50       	subi	r20, 0x08	; 8
 32c:	51 09       	sbc	r21, r1
 32e:	21 e0       	ldi	r18, 0x01	; 1
 330:	30 e0       	ldi	r19, 0x00	; 0
 332:	02 c0       	rjmp	.+4      	; 0x338 <DIO_SetPinDirection+0xdc>
 334:	22 0f       	add	r18, r18
 336:	33 1f       	adc	r19, r19
 338:	4a 95       	dec	r20
 33a:	e2 f7       	brpl	.-8      	; 0x334 <DIO_SetPinDirection+0xd8>
 33c:	20 95       	com	r18
 33e:	26 23       	and	r18, r22
 340:	fc 01       	movw	r30, r24
 342:	20 83       	st	Z, r18
			}
		}
		if(PinNum > 15 && PinNum < 24)
 344:	89 81       	ldd	r24, Y+1	; 0x01
 346:	80 31       	cpi	r24, 0x10	; 16
 348:	c0 f1       	brcs	.+112    	; 0x3ba <DIO_SetPinDirection+0x15e>
 34a:	89 81       	ldd	r24, Y+1	; 0x01
 34c:	88 31       	cpi	r24, 0x18	; 24
 34e:	a8 f5       	brcc	.+106    	; 0x3ba <DIO_SetPinDirection+0x15e>
		{
			if(PinDirection== 1)
 350:	8a 81       	ldd	r24, Y+2	; 0x02
 352:	81 30       	cpi	r24, 0x01	; 1
 354:	b9 f4       	brne	.+46     	; 0x384 <DIO_SetPinDirection+0x128>
			{
				Set_Bit( DDRC , (PinNum-16));
 356:	84 e3       	ldi	r24, 0x34	; 52
 358:	90 e0       	ldi	r25, 0x00	; 0
 35a:	24 e3       	ldi	r18, 0x34	; 52
 35c:	30 e0       	ldi	r19, 0x00	; 0
 35e:	f9 01       	movw	r30, r18
 360:	20 81       	ld	r18, Z
 362:	62 2f       	mov	r22, r18
 364:	29 81       	ldd	r18, Y+1	; 0x01
 366:	22 2f       	mov	r18, r18
 368:	30 e0       	ldi	r19, 0x00	; 0
 36a:	a9 01       	movw	r20, r18
 36c:	40 51       	subi	r20, 0x10	; 16
 36e:	51 09       	sbc	r21, r1
 370:	21 e0       	ldi	r18, 0x01	; 1
 372:	30 e0       	ldi	r19, 0x00	; 0
 374:	02 c0       	rjmp	.+4      	; 0x37a <DIO_SetPinDirection+0x11e>
 376:	22 0f       	add	r18, r18
 378:	33 1f       	adc	r19, r19
 37a:	4a 95       	dec	r20
 37c:	e2 f7       	brpl	.-8      	; 0x376 <DIO_SetPinDirection+0x11a>
 37e:	26 2b       	or	r18, r22
 380:	fc 01       	movw	r30, r24
 382:	20 83       	st	Z, r18
			}
			if(PinDirection== 0)
 384:	8a 81       	ldd	r24, Y+2	; 0x02
 386:	88 23       	and	r24, r24
 388:	c1 f4       	brne	.+48     	; 0x3ba <DIO_SetPinDirection+0x15e>
			{
				Clear_Bit( DDRC , (PinNum-16));
 38a:	84 e3       	ldi	r24, 0x34	; 52
 38c:	90 e0       	ldi	r25, 0x00	; 0
 38e:	24 e3       	ldi	r18, 0x34	; 52
 390:	30 e0       	ldi	r19, 0x00	; 0
 392:	f9 01       	movw	r30, r18
 394:	20 81       	ld	r18, Z
 396:	62 2f       	mov	r22, r18
 398:	29 81       	ldd	r18, Y+1	; 0x01
 39a:	22 2f       	mov	r18, r18
 39c:	30 e0       	ldi	r19, 0x00	; 0
 39e:	a9 01       	movw	r20, r18
 3a0:	40 51       	subi	r20, 0x10	; 16
 3a2:	51 09       	sbc	r21, r1
 3a4:	21 e0       	ldi	r18, 0x01	; 1
 3a6:	30 e0       	ldi	r19, 0x00	; 0
 3a8:	02 c0       	rjmp	.+4      	; 0x3ae <DIO_SetPinDirection+0x152>
 3aa:	22 0f       	add	r18, r18
 3ac:	33 1f       	adc	r19, r19
 3ae:	4a 95       	dec	r20
 3b0:	e2 f7       	brpl	.-8      	; 0x3aa <DIO_SetPinDirection+0x14e>
 3b2:	20 95       	com	r18
 3b4:	26 23       	and	r18, r22
 3b6:	fc 01       	movw	r30, r24
 3b8:	20 83       	st	Z, r18
			}
		}
		
		if(PinNum > 24 && PinNum < 32)
 3ba:	89 81       	ldd	r24, Y+1	; 0x01
 3bc:	89 31       	cpi	r24, 0x19	; 25
 3be:	c0 f1       	brcs	.+112    	; 0x430 <__LOCK_REGION_LENGTH__+0x30>
 3c0:	89 81       	ldd	r24, Y+1	; 0x01
 3c2:	80 32       	cpi	r24, 0x20	; 32
 3c4:	a8 f5       	brcc	.+106    	; 0x430 <__LOCK_REGION_LENGTH__+0x30>
		{
			if(PinDirection== 1)
 3c6:	8a 81       	ldd	r24, Y+2	; 0x02
 3c8:	81 30       	cpi	r24, 0x01	; 1
 3ca:	b9 f4       	brne	.+46     	; 0x3fa <DIO_SetPinDirection+0x19e>
			{
				Set_Bit( DDRD , (PinNum-24));
 3cc:	81 e3       	ldi	r24, 0x31	; 49
 3ce:	90 e0       	ldi	r25, 0x00	; 0
 3d0:	21 e3       	ldi	r18, 0x31	; 49
 3d2:	30 e0       	ldi	r19, 0x00	; 0
 3d4:	f9 01       	movw	r30, r18
 3d6:	20 81       	ld	r18, Z
 3d8:	62 2f       	mov	r22, r18
 3da:	29 81       	ldd	r18, Y+1	; 0x01
 3dc:	22 2f       	mov	r18, r18
 3de:	30 e0       	ldi	r19, 0x00	; 0
 3e0:	a9 01       	movw	r20, r18
 3e2:	48 51       	subi	r20, 0x18	; 24
 3e4:	51 09       	sbc	r21, r1
 3e6:	21 e0       	ldi	r18, 0x01	; 1
 3e8:	30 e0       	ldi	r19, 0x00	; 0
 3ea:	02 c0       	rjmp	.+4      	; 0x3f0 <DIO_SetPinDirection+0x194>
 3ec:	22 0f       	add	r18, r18
 3ee:	33 1f       	adc	r19, r19
 3f0:	4a 95       	dec	r20
 3f2:	e2 f7       	brpl	.-8      	; 0x3ec <DIO_SetPinDirection+0x190>
 3f4:	26 2b       	or	r18, r22
 3f6:	fc 01       	movw	r30, r24
 3f8:	20 83       	st	Z, r18
			}
			if(PinDirection== 0)
 3fa:	8a 81       	ldd	r24, Y+2	; 0x02
 3fc:	88 23       	and	r24, r24
 3fe:	c1 f4       	brne	.+48     	; 0x430 <__LOCK_REGION_LENGTH__+0x30>
			{
				Clear_Bit( DDRD , (PinNum-24));
 400:	81 e3       	ldi	r24, 0x31	; 49
 402:	90 e0       	ldi	r25, 0x00	; 0
 404:	21 e3       	ldi	r18, 0x31	; 49
 406:	30 e0       	ldi	r19, 0x00	; 0
 408:	f9 01       	movw	r30, r18
 40a:	20 81       	ld	r18, Z
 40c:	62 2f       	mov	r22, r18
 40e:	29 81       	ldd	r18, Y+1	; 0x01
 410:	22 2f       	mov	r18, r18
 412:	30 e0       	ldi	r19, 0x00	; 0
 414:	a9 01       	movw	r20, r18
 416:	48 51       	subi	r20, 0x18	; 24
 418:	51 09       	sbc	r21, r1
 41a:	21 e0       	ldi	r18, 0x01	; 1
 41c:	30 e0       	ldi	r19, 0x00	; 0
 41e:	02 c0       	rjmp	.+4      	; 0x424 <__LOCK_REGION_LENGTH__+0x24>
 420:	22 0f       	add	r18, r18
 422:	33 1f       	adc	r19, r19
 424:	4a 95       	dec	r20
 426:	e2 f7       	brpl	.-8      	; 0x420 <__LOCK_REGION_LENGTH__+0x20>
 428:	20 95       	com	r18
 42a:	26 23       	and	r18, r22
 42c:	fc 01       	movw	r30, r24
 42e:	20 83       	st	Z, r18
			}
		}
}
 430:	00 00       	nop
 432:	0f 90       	pop	r0
 434:	0f 90       	pop	r0
 436:	df 91       	pop	r29
 438:	cf 91       	pop	r28
 43a:	08 95       	ret

0000043c <main>:
#include "DIO.h"
#include "DIO_Definitions.h"
#include "Task.h"

int main(void)
{
 43c:	cf 93       	push	r28
 43e:	df 93       	push	r29
 440:	cd b7       	in	r28, 0x3d	; 61
 442:	de b7       	in	r29, 0x3e	; 62
	/*Set Leds As OUTPUt*/
	DIO_SetPinDirection(PIN12,OUTPUT);
 444:	61 e0       	ldi	r22, 0x01	; 1
 446:	8c e0       	ldi	r24, 0x0C	; 12
 448:	0e 94 2e 01 	call	0x25c	; 0x25c <DIO_SetPinDirection>
	DIO_SetPinDirection(PIN13,OUTPUT);
 44c:	61 e0       	ldi	r22, 0x01	; 1
 44e:	8d e0       	ldi	r24, 0x0D	; 13
 450:	0e 94 2e 01 	call	0x25c	; 0x25c <DIO_SetPinDirection>
	DIO_SetPinDirection(PIN14,OUTPUT);
 454:	61 e0       	ldi	r22, 0x01	; 1
 456:	8e e0       	ldi	r24, 0x0E	; 14
 458:	0e 94 2e 01 	call	0x25c	; 0x25c <DIO_SetPinDirection>
	DIO_SetPinDirection(PIN15,OUTPUT);
 45c:	61 e0       	ldi	r22, 0x01	; 1
 45e:	8f e0       	ldi	r24, 0x0F	; 15
 460:	0e 94 2e 01 	call	0x25c	; 0x25c <DIO_SetPinDirection>
	
	/*Add Tasks*/
	scheduler_Add_Task(led1);
 464:	88 ee       	ldi	r24, 0xE8	; 232
 466:	92 e0       	ldi	r25, 0x02	; 2
 468:	0e 94 61 02 	call	0x4c2	; 0x4c2 <scheduler_Add_Task>
	scheduler_Add_Task(led2);
 46c:	84 e1       	ldi	r24, 0x14	; 20
 46e:	93 e0       	ldi	r25, 0x03	; 3
 470:	0e 94 61 02 	call	0x4c2	; 0x4c2 <scheduler_Add_Task>
	scheduler_Add_Task(led3);
 474:	80 e4       	ldi	r24, 0x40	; 64
 476:	93 e0       	ldi	r25, 0x03	; 3
 478:	0e 94 61 02 	call	0x4c2	; 0x4c2 <scheduler_Add_Task>
	scheduler_Add_Task(led4);
 47c:	8c e6       	ldi	r24, 0x6C	; 108
 47e:	93 e0       	ldi	r25, 0x03	; 3
 480:	0e 94 61 02 	call	0x4c2	; 0x4c2 <scheduler_Add_Task>
	
    /* Start Schedular */
	schedulerInit_AndStart();
 484:	0e 94 45 02 	call	0x48a	; 0x48a <schedulerInit_AndStart>
	
    while (1)
    {
		
    }
 488:	ff cf       	rjmp	.-2      	; 0x488 <main+0x4c>

0000048a <schedulerInit_AndStart>:
volatile uint8 Last = ZERO;

void (*tasks[MAX_NUM_TASKS])(void);

void schedulerInit_AndStart()
{
 48a:	cf 93       	push	r28
 48c:	df 93       	push	r29
 48e:	cd b7       	in	r28, 0x3d	; 61
 490:	de b7       	in	r29, 0x3e	; 62
	timer_init();
 492:	0e 94 98 03 	call	0x730	; 0x730 <timer_init>
	set_Callback_Function(set_flag);
 496:	82 e5       	ldi	r24, 0x52	; 82
 498:	92 e0       	ldi	r25, 0x02	; 2
 49a:	0e 94 c4 03 	call	0x788	; 0x788 <set_Callback_Function>
	while(1)
	{
		dispatcher();
 49e:	0e 94 80 02 	call	0x500	; 0x500 <dispatcher>
	}
 4a2:	fd cf       	rjmp	.-6      	; 0x49e <schedulerInit_AndStart+0x14>

000004a4 <set_flag>:
}
void set_flag(void)
{
 4a4:	cf 93       	push	r28
 4a6:	df 93       	push	r29
 4a8:	cd b7       	in	r28, 0x3d	; 61
 4aa:	de b7       	in	r29, 0x3e	; 62
	if( flag == 0)
 4ac:	80 91 60 00 	lds	r24, 0x0060	; 0x800060 <_edata>
 4b0:	88 23       	and	r24, r24
 4b2:	19 f4       	brne	.+6      	; 0x4ba <set_flag+0x16>
	{
		flag = 1;
 4b4:	81 e0       	ldi	r24, 0x01	; 1
 4b6:	80 93 60 00 	sts	0x0060, r24	; 0x800060 <_edata>
	}
}
 4ba:	00 00       	nop
 4bc:	df 91       	pop	r29
 4be:	cf 91       	pop	r28
 4c0:	08 95       	ret

000004c2 <scheduler_Add_Task>:
uint8 scheduler_Add_Task(void (*Task)(void))
{
 4c2:	cf 93       	push	r28
 4c4:	df 93       	push	r29
 4c6:	00 d0       	rcall	.+0      	; 0x4c8 <scheduler_Add_Task+0x6>
 4c8:	cd b7       	in	r28, 0x3d	; 61
 4ca:	de b7       	in	r29, 0x3e	; 62
 4cc:	9a 83       	std	Y+2, r25	; 0x02
 4ce:	89 83       	std	Y+1, r24	; 0x01
	{
		return 0;
	}
	else
	{
	tasks[ Last ] = Task;
 4d0:	80 91 61 00 	lds	r24, 0x0061	; 0x800061 <Last>
 4d4:	88 2f       	mov	r24, r24
 4d6:	90 e0       	ldi	r25, 0x00	; 0
 4d8:	88 0f       	add	r24, r24
 4da:	99 1f       	adc	r25, r25
 4dc:	85 59       	subi	r24, 0x95	; 149
 4de:	9f 4f       	sbci	r25, 0xFF	; 255
 4e0:	29 81       	ldd	r18, Y+1	; 0x01
 4e2:	3a 81       	ldd	r19, Y+2	; 0x02
 4e4:	fc 01       	movw	r30, r24
 4e6:	31 83       	std	Z+1, r19	; 0x01
 4e8:	20 83       	st	Z, r18
	Last++;
 4ea:	80 91 61 00 	lds	r24, 0x0061	; 0x800061 <Last>
 4ee:	8f 5f       	subi	r24, 0xFF	; 255
 4f0:	80 93 61 00 	sts	0x0061, r24	; 0x800061 <Last>
	}
}
 4f4:	00 00       	nop
 4f6:	0f 90       	pop	r0
 4f8:	0f 90       	pop	r0
 4fa:	df 91       	pop	r29
 4fc:	cf 91       	pop	r28
 4fe:	08 95       	ret

00000500 <dispatcher>:

void dispatcher(void)
{
 500:	cf 93       	push	r28
 502:	df 93       	push	r29
 504:	cd b7       	in	r28, 0x3d	; 61
 506:	de b7       	in	r29, 0x3e	; 62
	volatile static uint8 NewTickFlag = ZERO ;
	if (1 == flag)
 508:	80 91 60 00 	lds	r24, 0x0060	; 0x800060 <_edata>
 50c:	81 30       	cpi	r24, 0x01	; 1
 50e:	09 f0       	breq	.+2      	; 0x512 <dispatcher+0x12>
 510:	5b c0       	rjmp	.+182    	; 0x5c8 <dispatcher+0xc8>
	{
	NewTickFlag++;
 512:	80 91 62 00 	lds	r24, 0x0062	; 0x800062 <NewTickFlag.1614>
 516:	8f 5f       	subi	r24, 0xFF	; 255
 518:	80 93 62 00 	sts	0x0062, r24	; 0x800062 <NewTickFlag.1614>
	
	if (NewTickFlag == NUM_TASKS + 1 )
 51c:	80 91 62 00 	lds	r24, 0x0062	; 0x800062 <NewTickFlag.1614>
 520:	85 30       	cpi	r24, 0x05	; 5
 522:	29 f4       	brne	.+10     	; 0x52e <dispatcher+0x2e>
	{
		NewTickFlag = ONE;
 524:	81 e0       	ldi	r24, 0x01	; 1
 526:	80 93 62 00 	sts	0x0062, r24	; 0x800062 <NewTickFlag.1614>
		flag = 0;
 52a:	10 92 60 00 	sts	0x0060, r1	; 0x800060 <_edata>
	}

	if(NewTickFlag == ONE)
 52e:	80 91 62 00 	lds	r24, 0x0062	; 0x800062 <NewTickFlag.1614>
 532:	81 30       	cpi	r24, 0x01	; 1
 534:	49 f4       	brne	.+18     	; 0x548 <dispatcher+0x48>
	{
		tasks[ZERO]();
 536:	80 91 6b 00 	lds	r24, 0x006B	; 0x80006b <tasks>
 53a:	90 91 6c 00 	lds	r25, 0x006C	; 0x80006c <tasks+0x1>
 53e:	fc 01       	movw	r30, r24
 540:	09 95       	icall
		flag = 0;
 542:	10 92 60 00 	sts	0x0060, r1	; 0x800060 <_edata>
	{
		tasks[FIVE]();
		flag = 0;
	}
	}
 546:	40 c0       	rjmp	.+128    	; 0x5c8 <dispatcher+0xc8>
	if(NewTickFlag == ONE)
	{
		tasks[ZERO]();
		flag = 0;
	}
	else if (NewTickFlag == TWO)
 548:	80 91 62 00 	lds	r24, 0x0062	; 0x800062 <NewTickFlag.1614>
 54c:	82 30       	cpi	r24, 0x02	; 2
 54e:	49 f4       	brne	.+18     	; 0x562 <dispatcher+0x62>
	{
		tasks[ONE]();
 550:	80 91 6d 00 	lds	r24, 0x006D	; 0x80006d <tasks+0x2>
 554:	90 91 6e 00 	lds	r25, 0x006E	; 0x80006e <tasks+0x3>
 558:	fc 01       	movw	r30, r24
 55a:	09 95       	icall
		flag = 0;
 55c:	10 92 60 00 	sts	0x0060, r1	; 0x800060 <_edata>
	{
		tasks[FIVE]();
		flag = 0;
	}
	}
 560:	33 c0       	rjmp	.+102    	; 0x5c8 <dispatcher+0xc8>
	else if (NewTickFlag == TWO)
	{
		tasks[ONE]();
		flag = 0;
	}
	else if (NewTickFlag == THREE)
 562:	80 91 62 00 	lds	r24, 0x0062	; 0x800062 <NewTickFlag.1614>
 566:	83 30       	cpi	r24, 0x03	; 3
 568:	49 f4       	brne	.+18     	; 0x57c <dispatcher+0x7c>
	{
		tasks[TWO]();
 56a:	80 91 6f 00 	lds	r24, 0x006F	; 0x80006f <tasks+0x4>
 56e:	90 91 70 00 	lds	r25, 0x0070	; 0x800070 <tasks+0x5>
 572:	fc 01       	movw	r30, r24
 574:	09 95       	icall
		flag = 0;
 576:	10 92 60 00 	sts	0x0060, r1	; 0x800060 <_edata>
	{
		tasks[FIVE]();
		flag = 0;
	}
	}
 57a:	26 c0       	rjmp	.+76     	; 0x5c8 <dispatcher+0xc8>
	else if (NewTickFlag == THREE)
	{
		tasks[TWO]();
		flag = 0;
	}
	else if (NewTickFlag == FOUR)
 57c:	80 91 62 00 	lds	r24, 0x0062	; 0x800062 <NewTickFlag.1614>
 580:	84 30       	cpi	r24, 0x04	; 4
 582:	49 f4       	brne	.+18     	; 0x596 <dispatcher+0x96>
	{
		tasks[THREE]();
 584:	80 91 71 00 	lds	r24, 0x0071	; 0x800071 <tasks+0x6>
 588:	90 91 72 00 	lds	r25, 0x0072	; 0x800072 <tasks+0x7>
 58c:	fc 01       	movw	r30, r24
 58e:	09 95       	icall
		flag = 0;
 590:	10 92 60 00 	sts	0x0060, r1	; 0x800060 <_edata>
	{
		tasks[FIVE]();
		flag = 0;
	}
	}
 594:	19 c0       	rjmp	.+50     	; 0x5c8 <dispatcher+0xc8>
	else if (NewTickFlag == FOUR)
	{
		tasks[THREE]();
		flag = 0;
	}
	else if (NewTickFlag == FIVE)
 596:	80 91 62 00 	lds	r24, 0x0062	; 0x800062 <NewTickFlag.1614>
 59a:	85 30       	cpi	r24, 0x05	; 5
 59c:	49 f4       	brne	.+18     	; 0x5b0 <dispatcher+0xb0>
	{
		tasks[FOUR]();
 59e:	80 91 73 00 	lds	r24, 0x0073	; 0x800073 <tasks+0x8>
 5a2:	90 91 74 00 	lds	r25, 0x0074	; 0x800074 <tasks+0x9>
 5a6:	fc 01       	movw	r30, r24
 5a8:	09 95       	icall
		flag = 0;
 5aa:	10 92 60 00 	sts	0x0060, r1	; 0x800060 <_edata>
	{
		tasks[FIVE]();
		flag = 0;
	}
	}
 5ae:	0c c0       	rjmp	.+24     	; 0x5c8 <dispatcher+0xc8>
	else if (NewTickFlag == FIVE)
	{
		tasks[FOUR]();
		flag = 0;
	}
	else if (NewTickFlag == SIX)
 5b0:	80 91 62 00 	lds	r24, 0x0062	; 0x800062 <NewTickFlag.1614>
 5b4:	86 30       	cpi	r24, 0x06	; 6
 5b6:	41 f4       	brne	.+16     	; 0x5c8 <dispatcher+0xc8>
	{
		tasks[FIVE]();
 5b8:	80 91 75 00 	lds	r24, 0x0075	; 0x800075 <tasks+0xa>
 5bc:	90 91 76 00 	lds	r25, 0x0076	; 0x800076 <tasks+0xb>
 5c0:	fc 01       	movw	r30, r24
 5c2:	09 95       	icall
		flag = 0;
 5c4:	10 92 60 00 	sts	0x0060, r1	; 0x800060 <_edata>
	}
	}
 5c8:	00 00       	nop
 5ca:	df 91       	pop	r29
 5cc:	cf 91       	pop	r28
 5ce:	08 95       	ret

000005d0 <led1>:
static volatile uint16 count_led2=0;
static volatile uint16 count_led3=0;
static volatile uint16 count_led4=0;
	
void led1()
{
 5d0:	cf 93       	push	r28
 5d2:	df 93       	push	r29
 5d4:	cd b7       	in	r28, 0x3d	; 61
 5d6:	de b7       	in	r29, 0x3e	; 62
	count_led1++;
 5d8:	80 91 63 00 	lds	r24, 0x0063	; 0x800063 <count_led1>
 5dc:	90 91 64 00 	lds	r25, 0x0064	; 0x800064 <count_led1+0x1>
 5e0:	01 96       	adiw	r24, 0x01	; 1
 5e2:	90 93 64 00 	sts	0x0064, r25	; 0x800064 <count_led1+0x1>
 5e6:	80 93 63 00 	sts	0x0063, r24	; 0x800063 <count_led1>
	if(count_led1 == 250)
 5ea:	80 91 63 00 	lds	r24, 0x0063	; 0x800063 <count_led1>
 5ee:	90 91 64 00 	lds	r25, 0x0064	; 0x800064 <count_led1+0x1>
 5f2:	8a 3f       	cpi	r24, 0xFA	; 250
 5f4:	91 05       	cpc	r25, r1
 5f6:	29 f4       	brne	.+10     	; 0x602 <led1+0x32>
	{
		DIO_WritePin(PIN12,HIGH);
 5f8:	61 e0       	ldi	r22, 0x01	; 1
 5fa:	8c e0       	ldi	r24, 0x0C	; 12
 5fc:	0e 94 3e 00 	call	0x7c	; 0x7c <DIO_WritePin>
	{
		DIO_WritePin(PIN12,LOW);
		count_led1 = 0;
	}
	
}
 600:	0f c0       	rjmp	.+30     	; 0x620 <led1+0x50>
	count_led1++;
	if(count_led1 == 250)
	{
		DIO_WritePin(PIN12,HIGH);
	}
	else if (count_led1 == 500 )
 602:	80 91 63 00 	lds	r24, 0x0063	; 0x800063 <count_led1>
 606:	90 91 64 00 	lds	r25, 0x0064	; 0x800064 <count_led1+0x1>
 60a:	84 3f       	cpi	r24, 0xF4	; 244
 60c:	91 40       	sbci	r25, 0x01	; 1
 60e:	41 f4       	brne	.+16     	; 0x620 <led1+0x50>
	{
		DIO_WritePin(PIN12,LOW);
 610:	60 e0       	ldi	r22, 0x00	; 0
 612:	8c e0       	ldi	r24, 0x0C	; 12
 614:	0e 94 3e 00 	call	0x7c	; 0x7c <DIO_WritePin>
		count_led1 = 0;
 618:	10 92 64 00 	sts	0x0064, r1	; 0x800064 <count_led1+0x1>
 61c:	10 92 63 00 	sts	0x0063, r1	; 0x800063 <count_led1>
	}
	
}
 620:	00 00       	nop
 622:	df 91       	pop	r29
 624:	cf 91       	pop	r28
 626:	08 95       	ret

00000628 <led2>:
void led2()
{
 628:	cf 93       	push	r28
 62a:	df 93       	push	r29
 62c:	cd b7       	in	r28, 0x3d	; 61
 62e:	de b7       	in	r29, 0x3e	; 62
		count_led2++;
 630:	80 91 65 00 	lds	r24, 0x0065	; 0x800065 <count_led2>
 634:	90 91 66 00 	lds	r25, 0x0066	; 0x800066 <count_led2+0x1>
 638:	01 96       	adiw	r24, 0x01	; 1
 63a:	90 93 66 00 	sts	0x0066, r25	; 0x800066 <count_led2+0x1>
 63e:	80 93 65 00 	sts	0x0065, r24	; 0x800065 <count_led2>
		if(count_led2 == 250)
 642:	80 91 65 00 	lds	r24, 0x0065	; 0x800065 <count_led2>
 646:	90 91 66 00 	lds	r25, 0x0066	; 0x800066 <count_led2+0x1>
 64a:	8a 3f       	cpi	r24, 0xFA	; 250
 64c:	91 05       	cpc	r25, r1
 64e:	29 f4       	brne	.+10     	; 0x65a <led2+0x32>
		{
			DIO_WritePin(PIN13,HIGH);
 650:	61 e0       	ldi	r22, 0x01	; 1
 652:	8d e0       	ldi	r24, 0x0D	; 13
 654:	0e 94 3e 00 	call	0x7c	; 0x7c <DIO_WritePin>
		else if (count_led2 == 500 )
		{
			DIO_WritePin(PIN13,LOW);
			count_led2=0;
		}
}
 658:	0f c0       	rjmp	.+30     	; 0x678 <led2+0x50>
		count_led2++;
		if(count_led2 == 250)
		{
			DIO_WritePin(PIN13,HIGH);
		}
		else if (count_led2 == 500 )
 65a:	80 91 65 00 	lds	r24, 0x0065	; 0x800065 <count_led2>
 65e:	90 91 66 00 	lds	r25, 0x0066	; 0x800066 <count_led2+0x1>
 662:	84 3f       	cpi	r24, 0xF4	; 244
 664:	91 40       	sbci	r25, 0x01	; 1
 666:	41 f4       	brne	.+16     	; 0x678 <led2+0x50>
		{
			DIO_WritePin(PIN13,LOW);
 668:	60 e0       	ldi	r22, 0x00	; 0
 66a:	8d e0       	ldi	r24, 0x0D	; 13
 66c:	0e 94 3e 00 	call	0x7c	; 0x7c <DIO_WritePin>
			count_led2=0;
 670:	10 92 66 00 	sts	0x0066, r1	; 0x800066 <count_led2+0x1>
 674:	10 92 65 00 	sts	0x0065, r1	; 0x800065 <count_led2>
		}
}
 678:	00 00       	nop
 67a:	df 91       	pop	r29
 67c:	cf 91       	pop	r28
 67e:	08 95       	ret

00000680 <led3>:
void led3()
{
 680:	cf 93       	push	r28
 682:	df 93       	push	r29
 684:	cd b7       	in	r28, 0x3d	; 61
 686:	de b7       	in	r29, 0x3e	; 62
		count_led3++;
 688:	80 91 67 00 	lds	r24, 0x0067	; 0x800067 <count_led3>
 68c:	90 91 68 00 	lds	r25, 0x0068	; 0x800068 <count_led3+0x1>
 690:	01 96       	adiw	r24, 0x01	; 1
 692:	90 93 68 00 	sts	0x0068, r25	; 0x800068 <count_led3+0x1>
 696:	80 93 67 00 	sts	0x0067, r24	; 0x800067 <count_led3>
		if(count_led3 == 250)
 69a:	80 91 67 00 	lds	r24, 0x0067	; 0x800067 <count_led3>
 69e:	90 91 68 00 	lds	r25, 0x0068	; 0x800068 <count_led3+0x1>
 6a2:	8a 3f       	cpi	r24, 0xFA	; 250
 6a4:	91 05       	cpc	r25, r1
 6a6:	29 f4       	brne	.+10     	; 0x6b2 <led3+0x32>
		{
			DIO_WritePin(PIN14,HIGH);
 6a8:	61 e0       	ldi	r22, 0x01	; 1
 6aa:	8e e0       	ldi	r24, 0x0E	; 14
 6ac:	0e 94 3e 00 	call	0x7c	; 0x7c <DIO_WritePin>
		else if (count_led3 == 500 )
		{
			DIO_WritePin(PIN14,LOW);
			count_led3 = 0;
		}
}
 6b0:	0f c0       	rjmp	.+30     	; 0x6d0 <led3+0x50>
		count_led3++;
		if(count_led3 == 250)
		{
			DIO_WritePin(PIN14,HIGH);
		}
		else if (count_led3 == 500 )
 6b2:	80 91 67 00 	lds	r24, 0x0067	; 0x800067 <count_led3>
 6b6:	90 91 68 00 	lds	r25, 0x0068	; 0x800068 <count_led3+0x1>
 6ba:	84 3f       	cpi	r24, 0xF4	; 244
 6bc:	91 40       	sbci	r25, 0x01	; 1
 6be:	41 f4       	brne	.+16     	; 0x6d0 <led3+0x50>
		{
			DIO_WritePin(PIN14,LOW);
 6c0:	60 e0       	ldi	r22, 0x00	; 0
 6c2:	8e e0       	ldi	r24, 0x0E	; 14
 6c4:	0e 94 3e 00 	call	0x7c	; 0x7c <DIO_WritePin>
			count_led3 = 0;
 6c8:	10 92 68 00 	sts	0x0068, r1	; 0x800068 <count_led3+0x1>
 6cc:	10 92 67 00 	sts	0x0067, r1	; 0x800067 <count_led3>
		}
}
 6d0:	00 00       	nop
 6d2:	df 91       	pop	r29
 6d4:	cf 91       	pop	r28
 6d6:	08 95       	ret

000006d8 <led4>:

void led4()
{
 6d8:	cf 93       	push	r28
 6da:	df 93       	push	r29
 6dc:	cd b7       	in	r28, 0x3d	; 61
 6de:	de b7       	in	r29, 0x3e	; 62
		count_led4++;
 6e0:	80 91 69 00 	lds	r24, 0x0069	; 0x800069 <count_led4>
 6e4:	90 91 6a 00 	lds	r25, 0x006A	; 0x80006a <count_led4+0x1>
 6e8:	01 96       	adiw	r24, 0x01	; 1
 6ea:	90 93 6a 00 	sts	0x006A, r25	; 0x80006a <count_led4+0x1>
 6ee:	80 93 69 00 	sts	0x0069, r24	; 0x800069 <count_led4>
		if(count_led4 == 250)
 6f2:	80 91 69 00 	lds	r24, 0x0069	; 0x800069 <count_led4>
 6f6:	90 91 6a 00 	lds	r25, 0x006A	; 0x80006a <count_led4+0x1>
 6fa:	8a 3f       	cpi	r24, 0xFA	; 250
 6fc:	91 05       	cpc	r25, r1
 6fe:	29 f4       	brne	.+10     	; 0x70a <led4+0x32>
		{
			DIO_WritePin(PIN15,HIGH);
 700:	61 e0       	ldi	r22, 0x01	; 1
 702:	8f e0       	ldi	r24, 0x0F	; 15
 704:	0e 94 3e 00 	call	0x7c	; 0x7c <DIO_WritePin>
		else if (count_led4 == 500 )
		{
			DIO_WritePin(PIN15,LOW);
			count_led4 = 0;
		}
}
 708:	0f c0       	rjmp	.+30     	; 0x728 <led4+0x50>
		count_led4++;
		if(count_led4 == 250)
		{
			DIO_WritePin(PIN15,HIGH);
		}
		else if (count_led4 == 500 )
 70a:	80 91 69 00 	lds	r24, 0x0069	; 0x800069 <count_led4>
 70e:	90 91 6a 00 	lds	r25, 0x006A	; 0x80006a <count_led4+0x1>
 712:	84 3f       	cpi	r24, 0xF4	; 244
 714:	91 40       	sbci	r25, 0x01	; 1
 716:	41 f4       	brne	.+16     	; 0x728 <led4+0x50>
		{
			DIO_WritePin(PIN15,LOW);
 718:	60 e0       	ldi	r22, 0x00	; 0
 71a:	8f e0       	ldi	r24, 0x0F	; 15
 71c:	0e 94 3e 00 	call	0x7c	; 0x7c <DIO_WritePin>
			count_led4 = 0;
 720:	10 92 6a 00 	sts	0x006A, r1	; 0x80006a <count_led4+0x1>
 724:	10 92 69 00 	sts	0x0069, r1	; 0x800069 <count_led4>
		}
}
 728:	00 00       	nop
 72a:	df 91       	pop	r29
 72c:	cf 91       	pop	r28
 72e:	08 95       	ret

00000730 <timer_init>:
uint8 Tick;
/*Global Setting To Set Timer For 1 MSec on 16 MHZ Crystal*/


void timer_init(void)
{
 730:	cf 93       	push	r28
 732:	df 93       	push	r29
 734:	cd b7       	in	r28, 0x3d	; 61
 736:	de b7       	in	r29, 0x3e	; 62
	/**/
	/*Enable Global Interrupt*/
	SREG |= (1<<IBIT);
 738:	8f e5       	ldi	r24, 0x5F	; 95
 73a:	90 e0       	ldi	r25, 0x00	; 0
 73c:	2f e5       	ldi	r18, 0x5F	; 95
 73e:	30 e0       	ldi	r19, 0x00	; 0
 740:	f9 01       	movw	r30, r18
 742:	20 81       	ld	r18, Z
 744:	20 68       	ori	r18, 0x80	; 128
 746:	fc 01       	movw	r30, r24
 748:	20 83       	st	Z, r18
	/*Enable Timer 0*/
	TIMSK |=(1<<OCIE0);
 74a:	89 e5       	ldi	r24, 0x59	; 89
 74c:	90 e0       	ldi	r25, 0x00	; 0
 74e:	29 e5       	ldi	r18, 0x59	; 89
 750:	30 e0       	ldi	r19, 0x00	; 0
 752:	f9 01       	movw	r30, r18
 754:	20 81       	ld	r18, Z
 756:	22 60       	ori	r18, 0x02	; 2
 758:	fc 01       	movw	r30, r24
 75a:	20 83       	st	Z, r18
	/*Define Values To Timer To be 1 mSec*/
	TCNT0 = 0 ;
 75c:	82 e5       	ldi	r24, 0x52	; 82
 75e:	90 e0       	ldi	r25, 0x00	; 0
 760:	fc 01       	movw	r30, r24
 762:	10 82       	st	Z, r1
	OCR0 = 249 ;
 764:	8c e5       	ldi	r24, 0x5C	; 92
 766:	90 e0       	ldi	r25, 0x00	; 0
 768:	29 ef       	ldi	r18, 0xF9	; 249
 76a:	fc 01       	movw	r30, r24
 76c:	20 83       	st	Z, r18
	/*Prescaler 64*/
	TCCR0 |= (1<<CS00)|(1<<CS01)|(1<<WGM01);
 76e:	83 e5       	ldi	r24, 0x53	; 83
 770:	90 e0       	ldi	r25, 0x00	; 0
 772:	23 e5       	ldi	r18, 0x53	; 83
 774:	30 e0       	ldi	r19, 0x00	; 0
 776:	f9 01       	movw	r30, r18
 778:	20 81       	ld	r18, Z
 77a:	2b 60       	ori	r18, 0x0B	; 11
 77c:	fc 01       	movw	r30, r24
 77e:	20 83       	st	Z, r18
}
 780:	00 00       	nop
 782:	df 91       	pop	r29
 784:	cf 91       	pop	r28
 786:	08 95       	ret

00000788 <set_Callback_Function>:

void set_Callback_Function(void (*ptr)(void))
{
 788:	cf 93       	push	r28
 78a:	df 93       	push	r29
 78c:	00 d0       	rcall	.+0      	; 0x78e <set_Callback_Function+0x6>
 78e:	cd b7       	in	r28, 0x3d	; 61
 790:	de b7       	in	r29, 0x3e	; 62
 792:	9a 83       	std	Y+2, r25	; 0x02
 794:	89 83       	std	Y+1, r24	; 0x01
	Pointer_To_Func = ptr;
 796:	89 81       	ldd	r24, Y+1	; 0x01
 798:	9a 81       	ldd	r25, Y+2	; 0x02
 79a:	90 93 7e 00 	sts	0x007E, r25	; 0x80007e <Pointer_To_Func+0x1>
 79e:	80 93 7d 00 	sts	0x007D, r24	; 0x80007d <Pointer_To_Func>
}
 7a2:	00 00       	nop
 7a4:	0f 90       	pop	r0
 7a6:	0f 90       	pop	r0
 7a8:	df 91       	pop	r29
 7aa:	cf 91       	pop	r28
 7ac:	08 95       	ret

000007ae <__vector_10>:
ISR(TIMER0_COMP_vect)
{
 7ae:	1f 92       	push	r1
 7b0:	0f 92       	push	r0
 7b2:	00 90 5f 00 	lds	r0, 0x005F	; 0x80005f <__TEXT_REGION_LENGTH__+0x7e005f>
 7b6:	0f 92       	push	r0
 7b8:	11 24       	eor	r1, r1
 7ba:	2f 93       	push	r18
 7bc:	3f 93       	push	r19
 7be:	4f 93       	push	r20
 7c0:	5f 93       	push	r21
 7c2:	6f 93       	push	r22
 7c4:	7f 93       	push	r23
 7c6:	8f 93       	push	r24
 7c8:	9f 93       	push	r25
 7ca:	af 93       	push	r26
 7cc:	bf 93       	push	r27
 7ce:	ef 93       	push	r30
 7d0:	ff 93       	push	r31
 7d2:	cf 93       	push	r28
 7d4:	df 93       	push	r29
 7d6:	cd b7       	in	r28, 0x3d	; 61
 7d8:	de b7       	in	r29, 0x3e	; 62
	if (1 == OS_TICK_INTERVAL_MSEC)
	{
		Pointer_To_Func();
 7da:	80 91 7d 00 	lds	r24, 0x007D	; 0x80007d <Pointer_To_Func>
 7de:	90 91 7e 00 	lds	r25, 0x007E	; 0x80007e <Pointer_To_Func+0x1>
 7e2:	fc 01       	movw	r30, r24
 7e4:	09 95       	icall
	}
	if (2 == OS_TICK_INTERVAL_MSEC)
	{
		Tick++;
	}
	if(2 == Tick)
 7e6:	80 91 7f 00 	lds	r24, 0x007F	; 0x80007f <Tick>
 7ea:	82 30       	cpi	r24, 0x02	; 2
 7ec:	41 f4       	brne	.+16     	; 0x7fe <__vector_10+0x50>
	{
		Tick = 0;
 7ee:	10 92 7f 00 	sts	0x007F, r1	; 0x80007f <Tick>
		Pointer_To_Func();
 7f2:	80 91 7d 00 	lds	r24, 0x007D	; 0x80007d <Pointer_To_Func>
 7f6:	90 91 7e 00 	lds	r25, 0x007E	; 0x80007e <Pointer_To_Func+0x1>
 7fa:	fc 01       	movw	r30, r24
 7fc:	09 95       	icall
	}
 7fe:	00 00       	nop
 800:	df 91       	pop	r29
 802:	cf 91       	pop	r28
 804:	ff 91       	pop	r31
 806:	ef 91       	pop	r30
 808:	bf 91       	pop	r27
 80a:	af 91       	pop	r26
 80c:	9f 91       	pop	r25
 80e:	8f 91       	pop	r24
 810:	7f 91       	pop	r23
 812:	6f 91       	pop	r22
 814:	5f 91       	pop	r21
 816:	4f 91       	pop	r20
 818:	3f 91       	pop	r19
 81a:	2f 91       	pop	r18
 81c:	0f 90       	pop	r0
 81e:	00 92 5f 00 	sts	0x005F, r0	; 0x80005f <__TEXT_REGION_LENGTH__+0x7e005f>
 822:	0f 90       	pop	r0
 824:	1f 90       	pop	r1
 826:	18 95       	reti

00000828 <_exit>:
 828:	f8 94       	cli

0000082a <__stop_program>:
 82a:	ff cf       	rjmp	.-2      	; 0x82a <__stop_program>
